(lp0
(dp1
Vattack_type
p2
VMelee
p3
sVlocalized_name
p4
VAnti-Mage
p5
sVname
p6
Vnpc_dota_hero_antimage
p7
sVroles
p8
(lp9
VCarry
p10
aVEscape
p11
aVNuker
p12
asVprimary_attr
p13
Vagi
p14
sVid
p15
I0
sa(dp16
g2
VMelee
p17
sg4
VAxe
p18
sg6
Vnpc_dota_hero_axe
p19
sg8
(lp20
VInitiator
p21
aVDurable
p22
aVDisabler
p23
aVJungler
p24
asg13
Vstr
p25
sg15
I1
sa(dp26
g2
VRanged
p27
sg4
VBane
p28
sg6
Vnpc_dota_hero_bane
p29
sg8
(lp30
VSupport
p31
aVDisabler
p32
aVNuker
p33
aVDurable
p34
asg13
Vint
p35
sg15
I2
sa(dp36
g2
VMelee
p37
sg4
VBloodseeker
p38
sg6
Vnpc_dota_hero_bloodseeker
p39
sg8
(lp40
VCarry
p41
aVDisabler
p42
aVJungler
p43
aVNuker
p44
aVInitiator
p45
asg13
Vagi
p46
sg15
I3
sa(dp47
g2
VRanged
p48
sg4
VCrystal Maiden
p49
sg6
Vnpc_dota_hero_crystal_maiden
p50
sg8
(lp51
VSupport
p52
aVDisabler
p53
aVNuker
p54
aVJungler
p55
asg13
Vint
p56
sg15
I4
sa(dp57
g2
VRanged
p58
sg4
VDrow Ranger
p59
sg6
Vnpc_dota_hero_drow_ranger
p60
sg8
(lp61
VCarry
p62
aVDisabler
p63
aVPusher
p64
asg13
Vagi
p65
sg15
I5
sa(dp66
g2
VMelee
p67
sg4
VEarthshaker
p68
sg6
Vnpc_dota_hero_earthshaker
p69
sg8
(lp70
VSupport
p71
aVInitiator
p72
aVDisabler
p73
aVNuker
p74
asg13
Vstr
p75
sg15
I6
sa(dp76
g2
VMelee
p77
sg4
VJuggernaut
p78
sg6
Vnpc_dota_hero_juggernaut
p79
sg8
(lp80
VCarry
p81
aVPusher
p82
aVEscape
p83
asg13
Vagi
p84
sg15
I7
sa(dp85
g2
VRanged
p86
sg4
VMirana
p87
sg6
Vnpc_dota_hero_mirana
p88
sg8
(lp89
VCarry
p90
aVSupport
p91
aVEscape
p92
aVNuker
p93
aVDisabler
p94
asg13
Vagi
p95
sg15
I8
sa(dp96
g2
VRanged
p97
sg4
VMorphling
p98
sg6
Vnpc_dota_hero_morphling
p99
sg8
(lp100
VCarry
p101
aVEscape
p102
aVDurable
p103
aVNuker
p104
aVDisabler
p105
asg13
Vagi
p106
sg15
I9
sa(dp107
g2
VRanged
p108
sg4
VShadow Fiend
p109
sg6
Vnpc_dota_hero_nevermore
p110
sg8
(lp111
VCarry
p112
aVNuker
p113
asg13
Vagi
p114
sg15
I10
sa(dp115
g2
VMelee
p116
sg4
VPhantom Lancer
p117
sg6
Vnpc_dota_hero_phantom_lancer
p118
sg8
(lp119
VCarry
p120
aVEscape
p121
aVPusher
p122
aVNuker
p123
asg13
Vagi
p124
sg15
I11
sa(dp125
g2
VRanged
p126
sg4
VPuck
p127
sg6
Vnpc_dota_hero_puck
p128
sg8
(lp129
VInitiator
p130
aVDisabler
p131
aVEscape
p132
aVNuker
p133
asg13
Vint
p134
sg15
I12
sa(dp135
g2
VMelee
p136
sg4
VPudge
p137
sg6
Vnpc_dota_hero_pudge
p138
sg8
(lp139
VDisabler
p140
aVInitiator
p141
aVDurable
p142
aVNuker
p143
asg13
Vstr
p144
sg15
I13
sa(dp145
g2
VRanged
p146
sg4
VRazor
p147
sg6
Vnpc_dota_hero_razor
p148
sg8
(lp149
VCarry
p150
aVDurable
p151
aVNuker
p152
aVPusher
p153
asg13
Vagi
p154
sg15
I14
sa(dp155
g2
VMelee
p156
sg4
VSand King
p157
sg6
Vnpc_dota_hero_sand_king
p158
sg8
(lp159
VInitiator
p160
aVDisabler
p161
aVNuker
p162
aVEscape
p163
aVJungler
p164
asg13
Vstr
p165
sg15
I15
sa(dp166
g2
VRanged
p167
sg4
VStorm Spirit
p168
sg6
Vnpc_dota_hero_storm_spirit
p169
sg8
(lp170
VCarry
p171
aVEscape
p172
aVNuker
p173
aVInitiator
p174
aVDisabler
p175
asg13
Vint
p176
sg15
I16
sa(dp177
g2
VMelee
p178
sg4
VSven
p179
sg6
Vnpc_dota_hero_sven
p180
sg8
(lp181
VCarry
p182
aVDisabler
p183
aVInitiator
p184
aVDurable
p185
aVNuker
p186
asg13
Vstr
p187
sg15
I17
sa(dp188
g2
VMelee
p189
sg4
VTiny
p190
sg6
Vnpc_dota_hero_tiny
p191
sg8
(lp192
VCarry
p193
aVNuker
p194
aVPusher
p195
aVInitiator
p196
aVDurable
p197
aVDisabler
p198
asg13
Vstr
p199
sg15
I18
sa(dp200
g2
VRanged
p201
sg4
VVengeful Spirit
p202
sg6
Vnpc_dota_hero_vengefulspirit
p203
sg8
(lp204
VSupport
p205
aVInitiator
p206
aVDisabler
p207
aVNuker
p208
aVEscape
p209
asg13
Vagi
p210
sg15
I19
sa(dp211
g2
VRanged
p212
sg4
VWindranger
p213
sg6
Vnpc_dota_hero_windrunner
p214
sg8
(lp215
VCarry
p216
aVSupport
p217
aVDisabler
p218
aVEscape
p219
aVNuker
p220
asg13
Vint
p221
sg15
I20
sa(dp222
g2
VRanged
p223
sg4
VZeus
p224
sg6
Vnpc_dota_hero_zuus
p225
sg8
(lp226
VNuker
p227
asg13
Vint
p228
sg15
I21
sa(dp229
g2
VMelee
p230
sg4
VKunkka
p231
sg6
Vnpc_dota_hero_kunkka
p232
sg8
(lp233
VCarry
p234
aVDisabler
p235
aVInitiator
p236
aVDurable
p237
aVNuker
p238
asg13
Vstr
p239
sg15
I22
sa(dp240
g2
VRanged
p241
sg4
VLina
p242
sg6
Vnpc_dota_hero_lina
p243
sg8
(lp244
VSupport
p245
aVCarry
p246
aVNuker
p247
aVDisabler
p248
asg13
Vint
p249
sg15
I24
sa(dp250
g2
VRanged
p251
sg4
VLion
p252
sg6
Vnpc_dota_hero_lion
p253
sg8
(lp254
VSupport
p255
aVDisabler
p256
aVNuker
p257
aVInitiator
p258
asg13
Vint
p259
sg15
I25
sa(dp260
g2
VRanged
p261
sg4
VShadow Shaman
p262
sg6
Vnpc_dota_hero_shadow_shaman
p263
sg8
(lp264
VSupport
p265
aVPusher
p266
aVDisabler
p267
aVNuker
p268
aVInitiator
p269
asg13
Vint
p270
sg15
I26
sa(dp271
g2
VMelee
p272
sg4
VSlardar
p273
sg6
Vnpc_dota_hero_slardar
p274
sg8
(lp275
VCarry
p276
aVDurable
p277
aVInitiator
p278
aVDisabler
p279
aVEscape
p280
asg13
Vstr
p281
sg15
I27
sa(dp282
g2
VMelee
p283
sg4
VTidehunter
p284
sg6
Vnpc_dota_hero_tidehunter
p285
sg8
(lp286
VInitiator
p287
aVDurable
p288
aVDisabler
p289
aVNuker
p290
asg13
Vstr
p291
sg15
I28
sa(dp292
g2
VRanged
p293
sg4
VWitch Doctor
p294
sg6
Vnpc_dota_hero_witch_doctor
p295
sg8
(lp296
VSupport
p297
aVNuker
p298
aVDisabler
p299
asg13
Vint
p300
sg15
I29
sa(dp301
g2
VRanged
p302
sg4
VLich
p303
sg6
Vnpc_dota_hero_lich
p304
sg8
(lp305
VSupport
p306
aVNuker
p307
asg13
Vint
p308
sg15
I30
sa(dp309
g2
VMelee
p310
sg4
VRiki
p311
sg6
Vnpc_dota_hero_riki
p312
sg8
(lp313
VCarry
p314
aVEscape
p315
aVDisabler
p316
asg13
Vagi
p317
sg15
I31
sa(dp318
g2
VRanged
p319
sg4
VEnigma
p320
sg6
Vnpc_dota_hero_enigma
p321
sg8
(lp322
VDisabler
p323
aVJungler
p324
aVInitiator
p325
aVPusher
p326
asg13
Vint
p327
sg15
I32
sa(dp328
g2
VRanged
p329
sg4
VTinker
p330
sg6
Vnpc_dota_hero_tinker
p331
sg8
(lp332
VCarry
p333
aVNuker
p334
aVPusher
p335
asg13
Vint
p336
sg15
I33
sa(dp337
g2
VRanged
p338
sg4
VSniper
p339
sg6
Vnpc_dota_hero_sniper
p340
sg8
(lp341
VCarry
p342
aVNuker
p343
asg13
Vagi
p344
sg15
I34
sa(dp345
g2
VRanged
p346
sg4
VNecrophos
p347
sg6
Vnpc_dota_hero_necrolyte
p348
sg8
(lp349
VCarry
p350
aVNuker
p351
aVDurable
p352
aVDisabler
p353
asg13
Vint
p354
sg15
I35
sa(dp355
g2
VRanged
p356
sg4
VWarlock
p357
sg6
Vnpc_dota_hero_warlock
p358
sg8
(lp359
VSupport
p360
aVInitiator
p361
aVDisabler
p362
asg13
Vint
p363
sg15
I36
sa(dp364
g2
VMelee
p365
sg4
VBeastmaster
p366
sg6
Vnpc_dota_hero_beastmaster
p367
sg8
(lp368
VInitiator
p369
aVDisabler
p370
aVDurable
p371
aVNuker
p372
asg13
Vstr
p373
sg15
I37
sa(dp374
g2
VRanged
p375
sg4
VQueen of Pain
p376
sg6
Vnpc_dota_hero_queenofpain
p377
sg8
(lp378
VCarry
p379
aVNuker
p380
aVEscape
p381
asg13
Vint
p382
sg15
I38
sa(dp383
g2
VRanged
p384
sg4
VVenomancer
p385
sg6
Vnpc_dota_hero_venomancer
p386
sg8
(lp387
VSupport
p388
aVNuker
p389
aVInitiator
p390
aVPusher
p391
aVDisabler
p392
asg13
Vagi
p393
sg15
I39
sa(dp394
g2
VMelee
p395
sg4
VFaceless Void
p396
sg6
Vnpc_dota_hero_faceless_void
p397
sg8
(lp398
VCarry
p399
aVInitiator
p400
aVDisabler
p401
aVEscape
p402
aVDurable
p403
asg13
Vagi
p404
sg15
I40
sa(dp405
g2
VMelee
p406
sg4
VWraith King
p407
sg6
Vnpc_dota_hero_skeleton_king
p408
sg8
(lp409
VCarry
p410
aVSupport
p411
aVDurable
p412
aVDisabler
p413
aVInitiator
p414
asg13
Vstr
p415
sg15
I41
sa(dp416
g2
VRanged
p417
sg4
VDeath Prophet
p418
sg6
Vnpc_dota_hero_death_prophet
p419
sg8
(lp420
VCarry
p421
aVPusher
p422
aVNuker
p423
aVDisabler
p424
asg13
Vint
p425
sg15
I42
sa(dp426
g2
VMelee
p427
sg4
VPhantom Assassin
p428
sg6
Vnpc_dota_hero_phantom_assassin
p429
sg8
(lp430
VCarry
p431
aVEscape
p432
asg13
Vagi
p433
sg15
I43
sa(dp434
g2
VRanged
p435
sg4
VPugna
p436
sg6
Vnpc_dota_hero_pugna
p437
sg8
(lp438
VNuker
p439
aVPusher
p440
asg13
Vint
p441
sg15
I44
sa(dp442
g2
VRanged
p443
sg4
VTemplar Assassin
p444
sg6
Vnpc_dota_hero_templar_assassin
p445
sg8
(lp446
VCarry
p447
aVEscape
p448
asg13
Vagi
p449
sg15
I45
sa(dp450
g2
VRanged
p451
sg4
VViper
p452
sg6
Vnpc_dota_hero_viper
p453
sg8
(lp454
VCarry
p455
aVDurable
p456
aVInitiator
p457
aVDisabler
p458
asg13
Vagi
p459
sg15
I46
sa(dp460
g2
VRanged
p461
sg4
VLuna
p462
sg6
Vnpc_dota_hero_luna
p463
sg8
(lp464
VCarry
p465
aVNuker
p466
aVPusher
p467
asg13
Vagi
p468
sg15
I47
sa(dp469
g2
VMelee
p470
sg4
VDragon Knight
p471
sg6
Vnpc_dota_hero_dragon_knight
p472
sg8
(lp473
VCarry
p474
aVPusher
p475
aVDurable
p476
aVDisabler
p477
aVInitiator
p478
aVNuker
p479
asg13
Vstr
p480
sg15
I48
sa(dp481
g2
VRanged
p482
sg4
VDazzle
p483
sg6
Vnpc_dota_hero_dazzle
p484
sg8
(lp485
VSupport
p486
aVNuker
p487
aVDisabler
p488
asg13
Vint
p489
sg15
I49
sa(dp490
g2
VMelee
p491
sg4
VClockwerk
p492
sg6
Vnpc_dota_hero_rattletrap
p493
sg8
(lp494
VInitiator
p495
aVDisabler
p496
aVDurable
p497
aVNuker
p498
asg13
Vstr
p499
sg15
I50
sa(dp500
g2
VRanged
p501
sg4
VLeshrac
p502
sg6
Vnpc_dota_hero_leshrac
p503
sg8
(lp504
VCarry
p505
aVSupport
p506
aVNuker
p507
aVPusher
p508
aVDisabler
p509
asg13
Vint
p510
sg15
I51
sa(dp511
g2
VRanged
p512
sg4
VNature's Prophet
p513
sg6
Vnpc_dota_hero_furion
p514
sg8
(lp515
VCarry
p516
aVJungler
p517
aVPusher
p518
aVEscape
p519
aVNuker
p520
asg13
Vint
p521
sg15
I52
sa(dp522
g2
VMelee
p523
sg4
VLifestealer
p524
sg6
Vnpc_dota_hero_life_stealer
p525
sg8
(lp526
VCarry
p527
aVDurable
p528
aVJungler
p529
aVEscape
p530
aVDisabler
p531
asg13
Vstr
p532
sg15
I53
sa(dp533
g2
VMelee
p534
sg4
VDark Seer
p535
sg6
Vnpc_dota_hero_dark_seer
p536
sg8
(lp537
VInitiator
p538
aVJungler
p539
aVEscape
p540
aVDisabler
p541
asg13
Vint
p542
sg15
I54
sa(dp543
g2
VRanged
p544
sg4
VClinkz
p545
sg6
Vnpc_dota_hero_clinkz
p546
sg8
(lp547
VCarry
p548
aVEscape
p549
aVPusher
p550
asg13
Vagi
p551
sg15
I55
sa(dp552
g2
VMelee
p553
sg4
VOmniknight
p554
sg6
Vnpc_dota_hero_omniknight
p555
sg8
(lp556
VSupport
p557
aVDurable
p558
aVNuker
p559
asg13
Vstr
p560
sg15
I56
sa(dp561
g2
VRanged
p562
sg4
VEnchantress
p563
sg6
Vnpc_dota_hero_enchantress
p564
sg8
(lp565
VSupport
p566
aVJungler
p567
aVPusher
p568
aVDurable
p569
aVDisabler
p570
asg13
Vint
p571
sg15
I57
sa(dp572
g2
VRanged
p573
sg4
VHuskar
p574
sg6
Vnpc_dota_hero_huskar
p575
sg8
(lp576
VCarry
p577
aVDurable
p578
aVInitiator
p579
asg13
Vstr
p580
sg15
I58
sa(dp581
g2
VMelee
p582
sg4
VNight Stalker
p583
sg6
Vnpc_dota_hero_night_stalker
p584
sg8
(lp585
VCarry
p586
aVInitiator
p587
aVDurable
p588
aVDisabler
p589
aVNuker
p590
asg13
Vstr
p591
sg15
I59
sa(dp592
g2
VMelee
p593
sg4
VBroodmother
p594
sg6
Vnpc_dota_hero_broodmother
p595
sg8
(lp596
VCarry
p597
aVPusher
p598
aVEscape
p599
aVNuker
p600
asg13
Vagi
p601
sg15
I60
sa(dp602
g2
VMelee
p603
sg4
VBounty Hunter
p604
sg6
Vnpc_dota_hero_bounty_hunter
p605
sg8
(lp606
VEscape
p607
aVNuker
p608
asg13
Vagi
p609
sg15
I61
sa(dp610
g2
VRanged
p611
sg4
VWeaver
p612
sg6
Vnpc_dota_hero_weaver
p613
sg8
(lp614
VCarry
p615
aVEscape
p616
asg13
Vagi
p617
sg15
I62
sa(dp618
g2
VRanged
p619
sg4
VJakiro
p620
sg6
Vnpc_dota_hero_jakiro
p621
sg8
(lp622
VSupport
p623
aVNuker
p624
aVPusher
p625
aVDisabler
p626
asg13
Vint
p627
sg15
I63
sa(dp628
g2
VRanged
p629
sg4
VBatrider
p630
sg6
Vnpc_dota_hero_batrider
p631
sg8
(lp632
VInitiator
p633
aVJungler
p634
aVDisabler
p635
aVEscape
p636
asg13
Vint
p637
sg15
I64
sa(dp638
g2
VRanged
p639
sg4
VChen
p640
sg6
Vnpc_dota_hero_chen
p641
sg8
(lp642
VSupport
p643
aVJungler
p644
aVPusher
p645
asg13
Vint
p646
sg15
I65
sa(dp647
g2
VMelee
p648
sg4
VSpectre
p649
sg6
Vnpc_dota_hero_spectre
p650
sg8
(lp651
VCarry
p652
aVDurable
p653
aVEscape
p654
asg13
Vagi
p655
sg15
I66
sa(dp656
g2
VRanged
p657
sg4
VAncient Apparition
p658
sg6
Vnpc_dota_hero_ancient_apparition
p659
sg8
(lp660
VSupport
p661
aVDisabler
p662
aVNuker
p663
asg13
Vint
p664
sg15
I67
sa(dp665
g2
VMelee
p666
sg4
VDoom
p667
sg6
Vnpc_dota_hero_doom_bringer
p668
sg8
(lp669
VCarry
p670
aVDisabler
p671
aVInitiator
p672
aVDurable
p673
aVNuker
p674
asg13
Vstr
p675
sg15
I68
sa(dp676
g2
VMelee
p677
sg4
VUrsa
p678
sg6
Vnpc_dota_hero_ursa
p679
sg8
(lp680
VCarry
p681
aVJungler
p682
aVDurable
p683
aVDisabler
p684
asg13
Vagi
p685
sg15
I69
sa(dp686
g2
VMelee
p687
sg4
VSpirit Breaker
p688
sg6
Vnpc_dota_hero_spirit_breaker
p689
sg8
(lp690
VCarry
p691
aVInitiator
p692
aVDisabler
p693
aVDurable
p694
aVEscape
p695
asg13
Vstr
p696
sg15
I70
sa(dp697
g2
VRanged
p698
sg4
VGyrocopter
p699
sg6
Vnpc_dota_hero_gyrocopter
p700
sg8
(lp701
VCarry
p702
aVNuker
p703
aVDisabler
p704
asg13
Vagi
p705
sg15
I71
sa(dp706
g2
VMelee
p707
sg4
VAlchemist
p708
sg6
Vnpc_dota_hero_alchemist
p709
sg8
(lp710
VCarry
p711
aVSupport
p712
aVDurable
p713
aVDisabler
p714
aVInitiator
p715
aVNuker
p716
asg13
Vstr
p717
sg15
I72
sa(dp718
g2
VRanged
p719
sg4
VInvoker
p720
sg6
Vnpc_dota_hero_invoker
p721
sg8
(lp722
VCarry
p723
aVNuker
p724
aVDisabler
p725
aVEscape
p726
aVPusher
p727
asg13
Vint
p728
sg15
I73
sa(dp729
g2
VRanged
p730
sg4
VSilencer
p731
sg6
Vnpc_dota_hero_silencer
p732
sg8
(lp733
VCarry
p734
aVSupport
p735
aVDisabler
p736
aVInitiator
p737
aVNuker
p738
asg13
Vint
p739
sg15
I74
sa(dp740
g2
VRanged
p741
sg4
VOutworld Devourer
p742
sg6
Vnpc_dota_hero_obsidian_destroyer
p743
sg8
(lp744
VCarry
p745
aVNuker
p746
aVDisabler
p747
asg13
Vint
p748
sg15
I75
sa(dp749
g2
VMelee
p750
sg4
VLycan
p751
sg6
Vnpc_dota_hero_lycan
p752
sg8
(lp753
VCarry
p754
aVPusher
p755
aVJungler
p756
aVDurable
p757
aVEscape
p758
asg13
Vstr
p759
sg15
I76
sa(dp760
g2
VMelee
p761
sg4
VBrewmaster
p762
sg6
Vnpc_dota_hero_brewmaster
p763
sg8
(lp764
VCarry
p765
aVInitiator
p766
aVDurable
p767
aVDisabler
p768
aVNuker
p769
asg13
Vstr
p770
sg15
I77
sa(dp771
g2
VRanged
p772
sg4
VShadow Demon
p773
sg6
Vnpc_dota_hero_shadow_demon
p774
sg8
(lp775
VSupport
p776
aVDisabler
p777
aVInitiator
p778
aVNuker
p779
asg13
Vint
p780
sg15
I78
sa(dp781
g2
VRanged
p782
sg4
VLone Druid
p783
sg6
Vnpc_dota_hero_lone_druid
p784
sg8
(lp785
VCarry
p786
aVPusher
p787
aVJungler
p788
aVDurable
p789
asg13
Vagi
p790
sg15
I79
sa(dp791
g2
VMelee
p792
sg4
VChaos Knight
p793
sg6
Vnpc_dota_hero_chaos_knight
p794
sg8
(lp795
VCarry
p796
aVDisabler
p797
aVDurable
p798
aVPusher
p799
aVInitiator
p800
asg13
Vstr
p801
sg15
I80
sa(dp802
g2
VMelee
p803
sg4
VMeepo
p804
sg6
Vnpc_dota_hero_meepo
p805
sg8
(lp806
VCarry
p807
aVEscape
p808
aVNuker
p809
aVDisabler
p810
aVInitiator
p811
aVPusher
p812
asg13
Vagi
p813
sg15
I81
sa(dp814
g2
VMelee
p815
sg4
VTreant Protector
p816
sg6
Vnpc_dota_hero_treant
p817
sg8
(lp818
VSupport
p819
aVInitiator
p820
aVDurable
p821
aVDisabler
p822
aVEscape
p823
asg13
Vstr
p824
sg15
I82
sa(dp825
g2
VMelee
p826
sg4
VOgre Magi
p827
sg6
Vnpc_dota_hero_ogre_magi
p828
sg8
(lp829
VSupport
p830
aVNuker
p831
aVDisabler
p832
aVDurable
p833
aVInitiator
p834
asg13
Vint
p835
sg15
I83
sa(dp836
g2
VMelee
p837
sg4
VUndying
p838
sg6
Vnpc_dota_hero_undying
p839
sg8
(lp840
VSupport
p841
aVDurable
p842
aVDisabler
p843
aVNuker
p844
asg13
Vstr
p845
sg15
I84
sa(dp846
g2
VRanged
p847
sg4
VRubick
p848
sg6
Vnpc_dota_hero_rubick
p849
sg8
(lp850
VSupport
p851
aVDisabler
p852
aVNuker
p853
asg13
Vint
p854
sg15
I85
sa(dp855
g2
VRanged
p856
sg4
VDisruptor
p857
sg6
Vnpc_dota_hero_disruptor
p858
sg8
(lp859
VSupport
p860
aVDisabler
p861
aVNuker
p862
aVInitiator
p863
asg13
Vint
p864
sg15
I86
sa(dp865
g2
VMelee
p866
sg4
VNyx Assassin
p867
sg6
Vnpc_dota_hero_nyx_assassin
p868
sg8
(lp869
VDisabler
p870
aVNuker
p871
aVInitiator
p872
aVEscape
p873
asg13
Vagi
p874
sg15
I87
sa(dp875
g2
VMelee
p876
sg4
VNaga Siren
p877
sg6
Vnpc_dota_hero_naga_siren
p878
sg8
(lp879
VCarry
p880
aVSupport
p881
aVPusher
p882
aVDisabler
p883
aVInitiator
p884
aVEscape
p885
asg13
Vagi
p886
sg15
I88
sa(dp887
g2
VRanged
p888
sg4
VKeeper of the Light
p889
sg6
Vnpc_dota_hero_keeper_of_the_light
p890
sg8
(lp891
VSupport
p892
aVNuker
p893
aVDisabler
p894
aVJungler
p895
asg13
Vint
p896
sg15
I89
sa(dp897
g2
VRanged
p898
sg4
VIo
p899
sg6
Vnpc_dota_hero_wisp
p900
sg8
(lp901
VSupport
p902
aVEscape
p903
aVNuker
p904
asg13
Vstr
p905
sg15
I90
sa(dp906
g2
VRanged
p907
sg4
VVisage
p908
sg6
Vnpc_dota_hero_visage
p909
sg8
(lp910
VSupport
p911
aVNuker
p912
aVDurable
p913
aVDisabler
p914
aVPusher
p915
asg13
Vint
p916
sg15
I91
sa(dp917
g2
VMelee
p918
sg4
VSlark
p919
sg6
Vnpc_dota_hero_slark
p920
sg8
(lp921
VCarry
p922
aVEscape
p923
aVDisabler
p924
aVNuker
p925
asg13
Vagi
p926
sg15
I92
sa(dp927
g2
VRanged
p928
sg4
VMedusa
p929
sg6
Vnpc_dota_hero_medusa
p930
sg8
(lp931
VCarry
p932
aVDisabler
p933
aVDurable
p934
asg13
Vagi
p935
sg15
I93
sa(dp936
g2
VRanged
p937
sg4
VTroll Warlord
p938
sg6
Vnpc_dota_hero_troll_warlord
p939
sg8
(lp940
VCarry
p941
aVPusher
p942
aVDisabler
p943
aVDurable
p944
asg13
Vagi
p945
sg15
I94
sa(dp946
g2
VMelee
p947
sg4
VCentaur Warrunner
p948
sg6
Vnpc_dota_hero_centaur
p949
sg8
(lp950
VDurable
p951
aVInitiator
p952
aVDisabler
p953
aVNuker
p954
aVEscape
p955
asg13
Vstr
p956
sg15
I95
sa(dp957
g2
VMelee
p958
sg4
VMagnus
p959
sg6
Vnpc_dota_hero_magnataur
p960
sg8
(lp961
VInitiator
p962
aVDisabler
p963
aVNuker
p964
aVEscape
p965
asg13
Vstr
p966
sg15
I96
sa(dp967
g2
VMelee
p968
sg4
VTimbersaw
p969
sg6
Vnpc_dota_hero_shredder
p970
sg8
(lp971
VNuker
p972
aVDurable
p973
aVEscape
p974
asg13
Vstr
p975
sg15
I97
sa(dp976
g2
VMelee
p977
sg4
VBristleback
p978
sg6
Vnpc_dota_hero_bristleback
p979
sg8
(lp980
VCarry
p981
aVDurable
p982
aVInitiator
p983
aVNuker
p984
asg13
Vstr
p985
sg15
I98
sa(dp986
g2
VMelee
p987
sg4
VTusk
p988
sg6
Vnpc_dota_hero_tusk
p989
sg8
(lp990
VInitiator
p991
aVDisabler
p992
aVNuker
p993
asg13
Vstr
p994
sg15
I99
sa(dp995
g2
VRanged
p996
sg4
VSkywrath Mage
p997
sg6
Vnpc_dota_hero_skywrath_mage
p998
sg8
(lp999
VSupport
p1000
aVNuker
p1001
aVDisabler
p1002
asg13
Vint
p1003
sg15
I100
sa(dp1004
g2
VMelee
p1005
sg4
VAbaddon
p1006
sg6
Vnpc_dota_hero_abaddon
p1007
sg8
(lp1008
VSupport
p1009
aVCarry
p1010
aVDurable
p1011
asg13
Vstr
p1012
sg15
I101
sa(dp1013
g2
VMelee
p1014
sg4
VElder Titan
p1015
sg6
Vnpc_dota_hero_elder_titan
p1016
sg8
(lp1017
VInitiator
p1018
aVDisabler
p1019
aVNuker
p1020
aVDurable
p1021
asg13
Vstr
p1022
sg15
I102
sa(dp1023
g2
VMelee
p1024
sg4
VLegion Commander
p1025
sg6
Vnpc_dota_hero_legion_commander
p1026
sg8
(lp1027
VCarry
p1028
aVDisabler
p1029
aVInitiator
p1030
aVDurable
p1031
aVNuker
p1032
asg13
Vstr
p1033
sg15
I103
sa(dp1034
g2
VRanged
p1035
sg4
VTechies
p1036
sg6
Vnpc_dota_hero_techies
p1037
sg8
(lp1038
VNuker
p1039
aVDisabler
p1040
asg13
Vint
p1041
sg15
I104
sa(dp1042
g2
VMelee
p1043
sg4
VEmber Spirit
p1044
sg6
Vnpc_dota_hero_ember_spirit
p1045
sg8
(lp1046
VCarry
p1047
aVEscape
p1048
aVNuker
p1049
aVDisabler
p1050
aVInitiator
p1051
asg13
Vagi
p1052
sg15
I105
sa(dp1053
g2
VMelee
p1054
sg4
VEarth Spirit
p1055
sg6
Vnpc_dota_hero_earth_spirit
p1056
sg8
(lp1057
VNuker
p1058
aVEscape
p1059
aVDisabler
p1060
aVInitiator
p1061
aVDurable
p1062
asg13
Vstr
p1063
sg15
I106
sa(dp1064
g2
VMelee
p1065
sg4
VUnderlord
p1066
sg6
Vnpc_dota_hero_abyssal_underlord
p1067
sg8
(lp1068
VSupport
p1069
aVNuker
p1070
aVDisabler
p1071
aVDurable
p1072
aVEscape
p1073
asg13
Vstr
p1074
sg15
I107
sa(dp1075
g2
VMelee
p1076
sg4
VTerrorblade
p1077
sg6
Vnpc_dota_hero_terrorblade
p1078
sg8
(lp1079
VCarry
p1080
aVPusher
p1081
aVNuker
p1082
asg13
Vagi
p1083
sg15
I108
sa(dp1084
g2
VRanged
p1085
sg4
VPhoenix
p1086
sg6
Vnpc_dota_hero_phoenix
p1087
sg8
(lp1088
VSupport
p1089
aVNuker
p1090
aVInitiator
p1091
aVEscape
p1092
aVDisabler
p1093
asg13
Vstr
p1094
sg15
I109
sa(dp1095
g2
VRanged
p1096
sg4
VOracle
p1097
sg6
Vnpc_dota_hero_oracle
p1098
sg8
(lp1099
VSupport
p1100
aVNuker
p1101
aVDisabler
p1102
aVEscape
p1103
asg13
Vint
p1104
sg15
I110
sa(dp1105
g2
VRanged
p1106
sg4
VWinter Wyvern
p1107
sg6
Vnpc_dota_hero_winter_wyvern
p1108
sg8
(lp1109
VSupport
p1110
aVDisabler
p1111
aVNuker
p1112
asg13
Vint
p1113
sg15
I111
sa(dp1114
g2
VRanged
p1115
sg4
VArc Warden
p1116
sg6
Vnpc_dota_hero_arc_warden
p1117
sg8
(lp1118
VCarry
p1119
aVEscape
p1120
aVNuker
p1121
asg13
Vagi
p1122
sg15
I112
sa(dp1123
g2
VMelee
p1124
sg4
VMonkey King
p1125
sg6
Vnpc_dota_hero_monkey_king
p1126
sg8
(lp1127
VCarry
p1128
aVEscape
p1129
aVDisabler
p1130
aVInitiator
p1131
asg13
Vagi
p1132
sg15
I113
sa.